target datalayout = "e-m:e-p270:32:32-p271:32:32-p272:64:64-i64:64-i128:128-f80:128-n8:16:32:64-S128"
target triple = "x86_64-pc-linux-gnu"

@g_ascii_table = external constant ptr, align 8
@heur_dissect_at.at_magic1 = internal constant [2 x i8] c"\0D\0A", align 1
@heur_dissect_at.at_magic2 = internal constant [3 x i8] c"\0D\0D\0A", align 1
@heur_dissect_at.at_magic3 = internal constant [2 x i8] c"AT", align 1

; Function Attrs: null_pointer_is_valid sspstrong uwtable
define internal zeroext i1 @is_padded(ptr noundef %0, i32 noundef %1, i32 noundef %2) #0 {
  %4 = alloca i1, align 1
  %5 = alloca ptr, align 8
  %6 = alloca i32, align 4
  %7 = alloca i32, align 4
  %8 = alloca i32, align 4
  %9 = alloca i8, align 1
  %10 = alloca i32, align 4
  store ptr %0, ptr %5, align 8
  store i32 %1, ptr %6, align 4
  store i32 %2, ptr %7, align 4
  call void @llvm.lifetime.start.p0(i64 4, ptr %8) #12
  call void @llvm.lifetime.start.p0(i64 1, ptr %9) #12
  %11 = load i32, ptr %7, align 4
  store i32 %11, ptr %8, align 4
  br label %12

12:                                               ; preds = %25, %3
  %13 = load i32, ptr %8, align 4
  %14 = load i32, ptr %6, align 4
  %15 = icmp slt i32 %13, %14
  br i1 %15, label %16, label %28

16:                                               ; preds = %12
  %17 = load ptr, ptr %5, align 8
  %18 = load i32, ptr %8, align 4
  %19 = call zeroext i8 @tvb_get_uint8(ptr noundef %17, i32 noundef %18)
  store i8 %19, ptr %9, align 1
  %20 = load i8, ptr %9, align 1
  %21 = zext i8 %20 to i32
  %22 = icmp ne i32 %21, 0
  br i1 %22, label %23, label %24

23:                                               ; preds = %16
  store i1 false, ptr %4, align 1
  store i32 1, ptr %10, align 4
  br label %29

24:                                               ; preds = %16
  br label %25

25:                                               ; preds = %24
  %26 = load i32, ptr %8, align 4
  %27 = add i32 %26, 1
  store i32 %27, ptr %8, align 4
  br label %12, !llvm.loop !23

28:                                               ; preds = %12
  store i1 true, ptr %4, align 1
  store i32 1, ptr %10, align 4
  br label %29

29:                                               ; preds = %28, %23
  call void @llvm.lifetime.end.p0(i64 1, ptr %9) #12
  call void @llvm.lifetime.end.p0(i64 4, ptr %8) #12
  %30 = load i1, ptr %4, align 1
  ret i1 %30
}

; Function Attrs: null_pointer_is_valid sspstrong uwtable
define internal i32 @allowed_chars_len(ptr noundef %0, i32 noundef %1) #0 {
  %3 = alloca i32, align 4
  %4 = alloca ptr, align 8
  %5 = alloca i32, align 4
  %6 = alloca i32, align 4
  %7 = alloca i8, align 1
  %8 = alloca i32, align 4
  store ptr %0, ptr %4, align 8
  store i32 %1, ptr %5, align 4
  call void @llvm.lifetime.start.p0(i64 4, ptr %6) #12
  call void @llvm.lifetime.start.p0(i64 1, ptr %7) #12
  store i32 0, ptr %6, align 4
  br label %9

9:                                                ; preds = %36, %2
  %10 = load i32, ptr %6, align 4
  %11 = load i32, ptr %5, align 4
  %12 = icmp slt i32 %10, %11
  br i1 %12, label %13, label %39

13:                                               ; preds = %9
  %14 = load ptr, ptr %4, align 8
  %15 = load i32, ptr %6, align 4
  %16 = call zeroext i8 @tvb_get_uint8(ptr noundef %14, i32 noundef %15)
  store i8 %16, ptr %7, align 1
  %17 = load ptr, ptr @g_ascii_table, align 8
  %18 = load i8, ptr %7, align 1
  %19 = zext i8 %18 to i64
  %20 = getelementptr i16, ptr %17, i64 %19
  %21 = load i16, ptr %20, align 2
  %22 = zext i16 %21 to i32
  %23 = and i32 %22, 64
  %24 = icmp ne i32 %23, 0
  br i1 %24, label %35, label %25

25:                                               ; preds = %13
  %26 = load i8, ptr %7, align 1
  %27 = zext i8 %26 to i32
  %28 = icmp eq i32 %27, 10
  br i1 %28, label %35, label %29

29:                                               ; preds = %25
  %30 = load i8, ptr %7, align 1
  %31 = zext i8 %30 to i32
  %32 = icmp eq i32 %31, 13
  br i1 %32, label %35, label %33

33:                                               ; preds = %29
  %34 = load i32, ptr %6, align 4
  store i32 %34, ptr %3, align 4
  store i32 1, ptr %8, align 4
  br label %41

35:                                               ; preds = %29, %25, %13
  br label %36

36:                                               ; preds = %35
  %37 = load i32, ptr %6, align 4
  %38 = add i32 %37, 1
  store i32 %38, ptr %6, align 4
  br label %9, !llvm.loop !22

39:                                               ; preds = %9
  %40 = load i32, ptr %5, align 4
  store i32 %40, ptr %3, align 4
  store i32 1, ptr %8, align 4
  br label %41

41:                                               ; preds = %39, %33
  call void @llvm.lifetime.end.p0(i64 1, ptr %7) #12
  call void @llvm.lifetime.end.p0(i64 4, ptr %6) #12
  %42 = load i32, ptr %3, align 4
  ret i32 %42
}

; Function Attrs: null_pointer_is_valid sspstrong uwtable
define internal zeroext i1 @heur_dissect_at(ptr noundef %0, ptr noundef %1, ptr noundef %2, ptr noundef %3) #0 {
  %5 = alloca i1, align 1
  %6 = alloca ptr, align 8
  %7 = alloca ptr, align 8
  %8 = alloca ptr, align 8
  %9 = alloca ptr, align 8
  %10 = alloca i32, align 4
  %11 = alloca i32, align 4
  %12 = alloca ptr, align 8
  %13 = alloca i32, align 4
  store ptr %0, ptr %6, align 8
  store ptr %1, ptr %7, align 8
  store ptr %2, ptr %8, align 8
  store ptr %3, ptr %9, align 8
  call void @llvm.lifetime.start.p0(i64 4, ptr %10) #12
  call void @llvm.lifetime.start.p0(i64 4, ptr %11) #12
  call void @llvm.lifetime.start.p0(i64 8, ptr %12) #12
  %14 = load ptr, ptr %6, align 8
  %15 = call i32 @tvb_memeql(ptr noundef %14, i32 noundef 0, ptr noundef @heur_dissect_at.at_magic1, i64 noundef 2)
  %16 = icmp eq i32 %15, 0
  br i1 %16, label %25, label %17

17:                                               ; preds = %4
  %18 = load ptr, ptr %6, align 8
  %19 = call i32 @tvb_memeql(ptr noundef %18, i32 noundef 0, ptr noundef @heur_dissect_at.at_magic2, i64 noundef 3)
  %20 = icmp eq i32 %19, 0
  br i1 %20, label %25, label %21

21:                                               ; preds = %17
  %22 = load ptr, ptr %6, align 8
  %23 = call i32 @tvb_memeql(ptr noundef %22, i32 noundef 0, ptr noundef @heur_dissect_at.at_magic3, i64 noundef 2)
  %24 = icmp eq i32 %23, 0
  br i1 %24, label %25, label %64

25:                                               ; preds = %21, %17, %4
  %26 = load ptr, ptr %6, align 8
  %27 = call i32 @tvb_captured_length(ptr noundef %26)
  store i32 %27, ptr %10, align 4
  %28 = load ptr, ptr %6, align 8
  %29 = load i32, ptr %10, align 4
  %30 = call i32 @allowed_chars_len(ptr noundef %28, i32 noundef %29)
  store i32 %30, ptr %11, align 4
  %31 = load i32, ptr %11, align 4
  %32 = load i32, ptr %10, align 4
  %33 = icmp slt i32 %31, %32
  br i1 %33, label %34, label %52

34:                                               ; preds = %25
  %35 = load i32, ptr %11, align 4
  %36 = icmp sgt i32 %35, 4
  br i1 %36, label %37, label %52

37:                                               ; preds = %34
  %38 = load ptr, ptr %6, align 8
  %39 = load i32, ptr %10, align 4
  %40 = load i32, ptr %11, align 4
  %41 = call zeroext i1 @is_padded(ptr noundef %38, i32 noundef %39, i32 noundef %40)
  br i1 %41, label %42, label %51

42:                                               ; preds = %37
  %43 = load ptr, ptr %6, align 8
  %44 = load i32, ptr %11, align 4
  %45 = call ptr @tvb_new_subset_length(ptr noundef %43, i32 noundef 0, i32 noundef %44)
  store ptr %45, ptr %12, align 8
  %46 = load ptr, ptr %12, align 8
  %47 = load ptr, ptr %7, align 8
  %48 = load ptr, ptr %8, align 8
  %49 = load ptr, ptr %9, align 8
  %50 = call i32 @dissect_at(ptr noundef %46, ptr noundef %47, ptr noundef %48, ptr noundef %49)
  store i1 true, ptr %5, align 1
  store i32 1, ptr %13, align 4
  br label %65

51:                                               ; preds = %37
  br label %63

52:                                               ; preds = %34, %25
  %53 = load i32, ptr %11, align 4
  %54 = load i32, ptr %10, align 4
  %55 = icmp eq i32 %53, %54
  br i1 %55, label %56, label %62

56:                                               ; preds = %52
  %57 = load ptr, ptr %6, align 8
  %58 = load ptr, ptr %7, align 8
  %59 = load ptr, ptr %8, align 8
  %60 = load ptr, ptr %9, align 8
  %61 = call i32 @dissect_at(ptr noundef %57, ptr noundef %58, ptr noundef %59, ptr noundef %60)
  store i1 true, ptr %5, align 1
  store i32 1, ptr %13, align 4
  br label %65

62:                                               ; preds = %52
  br label %63

63:                                               ; preds = %62, %51
  br label %64

64:                                               ; preds = %63, %21
  store i1 false, ptr %5, align 1
  store i32 1, ptr %13, align 4
  br label %65

65:                                               ; preds = %64, %56, %42
  call void @llvm.lifetime.end.p0(i64 8, ptr %12) #12
  call void @llvm.lifetime.end.p0(i64 4, ptr %11) #12
  call void @llvm.lifetime.end.p0(i64 4, ptr %10) #12
  %66 = load i1, ptr %5, align 1
  ret i1 %66
}