; Function Attrs: null_pointer_is_valid sspstrong uwtable
define internal noundef zeroext i1 @heur_dissect_at(ptr noundef %0, ptr noundef %1, ptr noundef %2, ptr readnone captures(none) %3) #0 {
  %5 = tail call i32 @tvb_memeql(ptr noundef %0, i32 noundef 0, ptr noundef nonnull @heur_dissect_at.at_magic1, i64 noundef 2)
  %6 = icmp eq i32 %5, 0
  br i1 %6, label %13, label %7

7:                                                ; preds = %4
  %8 = tail call i32 @tvb_memeql(ptr noundef %0, i32 noundef 0, ptr noundef nonnull @heur_dissect_at.at_magic2, i64 noundef 3)
  %9 = icmp eq i32 %8, 0
  br i1 %9, label %13, label %10

10:                                               ; preds = %7
  %11 = tail call i32 @tvb_memeql(ptr noundef %0, i32 noundef 0, ptr noundef nonnull @heur_dissect_at.at_magic3, i64 noundef 2)
  %12 = icmp eq i32 %11, 0
  br i1 %12, label %13, label %is_padded.exit

13:                                               ; preds = %10, %7, %4
  %14 = tail call i32 @tvb_captured_length(ptr noundef %0)
  %15 = icmp sgt i32 %14, 0
  br i1 %15, label %.lr.ph.i, label %is_padded.exit.sink.split

.lr.ph.i:                                         ; preds = %13
  %16 = load ptr, ptr @g_ascii_table, align 8
  br label %17

17:                                               ; preds = %23, %.lr.ph.i
  %.01518.i = phi i32 [ 0, %.lr.ph.i ], [ %24, %23 ]
  %18 = tail call zeroext i8 @tvb_get_uint8(ptr noundef %0, i32 noundef %.01518.i)
  %19 = zext i8 %18 to i64
  %20 = getelementptr i16, ptr %16, i64 %19
  %21 = load i16, ptr %20, align 2
  %.fr17.i = freeze i16 %21
  %22 = and i16 %.fr17.i, 64
  %.not.i = icmp eq i16 %22, 0
  br i1 %.not.i, label %switch.early.test.i, label %23

switch.early.test.i:                              ; preds = %17
  switch i8 %18, label %allowed_chars_len.exit [
    i8 13, label %23
    i8 10, label %23
  ]

23:                                               ; preds = %switch.early.test.i, %switch.early.test.i, %17
  %24 = add nuw nsw i32 %.01518.i, 1
  %exitcond.not.i = icmp eq i32 %24, %14
  br i1 %exitcond.not.i, label %is_padded.exit.sink.split, label %17, !llvm.loop !16

allowed_chars_len.exit:                           ; preds = %switch.early.test.i
  %25 = icmp slt i32 %.01518.i, %14
  %26 = icmp samesign ugt i32 %.01518.i, 4
  %or.cond = and i1 %25, %26
  br i1 %or.cond, label %.lr.ph.i27, label %32

27:                                               ; preds = %.lr.ph.i27
  %28 = add nuw i32 %.078.i, 1
  %exitcond.not.i29 = icmp eq i32 %28, %14
  br i1 %exitcond.not.i29, label %30, label %.lr.ph.i27, !llvm.loop !17

.lr.ph.i27:                                       ; preds = %allowed_chars_len.exit, %27
  %.078.i = phi i32 [ %28, %27 ], [ %.01518.i, %allowed_chars_len.exit ]
  %29 = tail call zeroext i8 @tvb_get_uint8(ptr noundef %0, i32 noundef %.078.i)
  %.not.i28 = icmp eq i8 %29, 0
  br i1 %.not.i28, label %27, label %is_padded.exit

30:                                               ; preds = %27
  %31 = tail call ptr @tvb_new_subset_length(ptr noundef %0, i32 noundef 0, i32 noundef %.01518.i)
  br label %is_padded.exit.sink.split

32:                                               ; preds = %allowed_chars_len.exit
  %33 = icmp eq i32 %.01518.i, %14
  br i1 %33, label %is_padded.exit.sink.split, label %is_padded.exit

is_padded.exit.sink.split:                        ; preds = %23, %32, %13, %30
  %.sink = phi ptr [ %31, %30 ], [ %0, %13 ], [ %0, %32 ], [ %0, %23 ]
  %34 = tail call i32 @dissect_at(ptr noundef %.sink, ptr noundef %1, ptr noundef %2, ptr poison)
  br label %is_padded.exit

is_padded.exit:                                   ; preds = %.lr.ph.i27, %is_padded.exit.sink.split, %10, %32
  %.0 = phi i1 [ false, %32 ], [ false, %10 ], [ true, %is_padded.exit.sink.split ], [ false, %.lr.ph.i27 ]
  ret i1 %.0
}